; Function Attrs: nounwind uwtable
define i32 @Pa_CloseStream(ptr noundef %0) local_unnamed_addr #3 {
  %2 = load i32, ptr @initializationCount_, align 4
  %.not.i = icmp eq i32 %2, 0
  br i1 %.not.i, label %PaUtil_ValidateStreamPointer.exit, label %3

3:                                                ; preds = %1
  %4 = icmp eq ptr %0, null
  br i1 %4, label %PaUtil_ValidateStreamPointer.exit, label %5

5:                                                ; preds = %3
  %6 = load i64, ptr %0, align 8
  %.not3.i = icmp eq i64 %6, 405222981
  %..i = select i1 %.not3.i, i32 0, i32 -9988
  br label %PaUtil_ValidateStreamPointer.exit

PaUtil_ValidateStreamPointer.exit:                ; preds = %1, %3, %5
  %.0.i = phi i32 [ -10000, %1 ], [ -9988, %3 ], [ %..i, %5 ]
  %.012.i = load ptr, ptr @firstOpenStream_, align 8
  %.not13.i = icmp eq ptr %.012.i, null
  br i1 %.not13.i, label %RemoveOpenStream.exit, label %.lr.ph.i.preheader

.lr.ph.i.preheader:                               ; preds = %PaUtil_ValidateStreamPointer.exit
  %7 = icmp eq ptr %.012.i, %0
  br i1 %7, label %.loopexit.sink.split.i, label %.lr.ph

.lr.ph.i:                                         ; preds = %.lr.ph
  %8 = icmp eq ptr %.0.i15, %0
  br i1 %8, label %.loopexit.sink.split.i, label %.lr.ph, !llvm.loop !13

.loopexit.sink.split.i:                           ; preds = %.lr.ph.i, %.lr.ph.i.preheader
  %.015.i.lcssa = phi ptr [ %.012.i, %.lr.ph.i.preheader ], [ %.0.i15, %.lr.ph.i ]
  %.0914.i.lcssa = phi ptr [ null, %.lr.ph.i.preheader ], [ %.015.i22, %.lr.ph.i ]
  %9 = icmp eq ptr %.0914.i.lcssa, null
  %10 = getelementptr inbounds nuw i8, ptr %.015.i.lcssa, i64 8
  %11 = load ptr, ptr %10, align 8
  %12 = getelementptr inbounds nuw i8, ptr %.0914.i.lcssa, i64 8
  %firstOpenStream_.sink.i = select i1 %9, ptr @firstOpenStream_, ptr %12
  store ptr %11, ptr %firstOpenStream_.sink.i, align 8
  br label %RemoveOpenStream.exit

.lr.ph:                                           ; preds = %.lr.ph.i.preheader, %.lr.ph.i
  %.015.i22 = phi ptr [ %.0.i15, %.lr.ph.i ], [ %.012.i, %.lr.ph.i.preheader ]
  %13 = getelementptr inbounds nuw i8, ptr %.015.i22, i64 8
  %.0.i15 = load ptr, ptr %13, align 8
  %.not.i16 = icmp eq ptr %.0.i15, null
  br i1 %.not.i16, label %RemoveOpenStream.exit, label %.lr.ph.i, !llvm.loop !13

RemoveOpenStream.exit:                            ; preds = %.lr.ph, %PaUtil_ValidateStreamPointer.exit, %.loopexit.sink.split.i
  %14 = icmp eq i32 %.0.i, 0
  br i1 %14, label %15, label %.thread18

15:                                               ; preds = %RemoveOpenStream.exit
  %16 = getelementptr inbounds nuw i8, ptr %0, i64 16
  %17 = load ptr, ptr %16, align 8
  %18 = getelementptr inbounds nuw i8, ptr %17, i64 32
  %19 = load ptr, ptr %18, align 8
  %20 = tail call i32 %19(ptr noundef %0) #12
  switch i32 %20, label %.thread18 [
    i32 1, label %.thread
    i32 0, label %21
  ]

21:                                               ; preds = %15
  %22 = getelementptr inbounds nuw i8, ptr %17, i64 24
  %23 = load ptr, ptr %22, align 8
  %24 = tail call i32 %23(ptr noundef nonnull %0) #12
  %25 = icmp eq i32 %24, 0
  br i1 %25, label %.thread, label %.thread18

.thread:                                          ; preds = %15, %21
  %26 = load ptr, ptr %17, align 8
  %27 = tail call i32 %26(ptr noundef nonnull %0) #12
  br label %.thread18

.thread18:                                        ; preds = %15, %21, %.thread, %RemoveOpenStream.exit
  %.0 = phi i32 [ %27, %.thread ], [ %24, %21 ], [ %.0.i, %RemoveOpenStream.exit ], [ %20, %15 ]
  ret i32 %.0
}